#include <math.h>
#include <stdio.h>
#include <stdlib.h>
#include <string.h>

int main()
{
	int k,n,i,j;
	double s=0,a[100]={0},aver=0;
	scanf("%d",&k);
	for(i=0;i<k;i++)
	{
		scanf("%d",&n);
		{
			aver=0;
			s=0;
			for(j=0;j<n;j++)
			{
				scanf("%lf",&a[j]);
				aver+=a[j];
			}
			aver/=n;
			for(j=0;j<n;j++)
			{
				s+=((a[j]-aver)*(a[j]-aver));
			}
			s/=n;
			s=sqrt(s);
			printf("%.5lf\n",s);
		}
	}
	return 0;
}